; Function Attrs: mustprogress uwtable
define hidden noundef zeroext i1 @_ZNK8facebook6hermes7tracing10SynthTrace22ArrayReadOrWriteRecordeqERKNS2_6RecordE(ptr noundef nonnull align 8 dereferenceable(48) %this, ptr noundef nonnull align 8 dereferenceable(16) %that) unnamed_addr #1 align 2 {
entry:
  %vtable.i = load ptr, ptr %this, align 8
  %vfn.i = getelementptr inbounds i8, ptr %vtable.i, i64 16
  %0 = load ptr, ptr %vfn.i, align 8
  %call.i = tail call noundef i32 %0(ptr noundef nonnull align 8 dereferenceable(16) %this)
  %vtable2.i = load ptr, ptr %that, align 8
  %vfn3.i = getelementptr inbounds i8, ptr %vtable2.i, i64 16
  %1 = load ptr, ptr %vfn3.i, align 8
  %call4.i = tail call noundef i32 %1(ptr noundef nonnull align 8 dereferenceable(16) %that)
  %cmp.i = icmp eq i32 %call.i, %call4.i
  br i1 %cmp.i, label %if.end, label %return

if.end:                                           ; preds = %entry
  %2 = tail call ptr @__dynamic_cast(ptr nonnull %that, ptr nonnull @_ZTIN8facebook6hermes7tracing10SynthTrace6RecordE, ptr nonnull @_ZTIN8facebook6hermes7tracing10SynthTrace22ArrayReadOrWriteRecordE, i64 0) #23
  %3 = icmp eq ptr %2, null
  br i1 %3, label %dynamic_cast.bad_cast, label %dynamic_cast.end

dynamic_cast.bad_cast:                            ; preds = %if.end
  tail call void @__cxa_bad_cast() #26
  unreachable

dynamic_cast.end:                                 ; preds = %if.end
  %objID_ = getelementptr inbounds i8, ptr %this, i64 16
  %4 = load i64, ptr %objID_, align 8
  %objID_2 = getelementptr inbounds i8, ptr %2, i64 16
  %5 = load i64, ptr %objID_2, align 8
  %cmp = icmp eq i64 %4, %5
  br i1 %cmp, label %land.lhs.true, label %return

land.lhs.true:                                    ; preds = %dynamic_cast.end
  %index_ = getelementptr inbounds i8, ptr %this, i64 24
  %6 = load i64, ptr %index_, align 8
  %index_3 = getelementptr inbounds i8, ptr %2, i64 24
  %7 = load i64, ptr %index_3, align 8
  %cmp4 = icmp eq i64 %6, %7
  br i1 %cmp4, label %land.rhs, label %return

land.rhs:                                         ; preds = %land.lhs.true
  %value_ = getelementptr inbounds i8, ptr %this, i64 32
  %value_5 = getelementptr inbounds i8, ptr %2, i64 32
  %8 = load i32, ptr %value_, align 8
  %9 = load i32, ptr %value_5, align 8
  %cmp.not.i = icmp eq i32 %8, %9
  br i1 %cmp.not.i, label %if.end.i, label %return

if.end.i:                                         ; preds = %land.rhs
  switch i32 %8, label %return [
    i32 2, label %sw.bb.i
    i32 3, label %sw.bb8.i
    i32 4, label %sw.bb12.i
    i32 5, label %sw.bb12.i
    i32 6, label %sw.bb12.i
  ]

sw.bb.i:                                          ; preds = %if.end.i
  %val_.i = getelementptr inbounds i8, ptr %this, i64 40
  %10 = load i8, ptr %val_.i, align 8
  %val_4.i = getelementptr inbounds i8, ptr %2, i64 40
  %11 = load i8, ptr %val_4.i, align 8
  %12 = xor i8 %11, %10
  %13 = and i8 %12, 1
  %cmp7.i = icmp eq i8 %13, 0
  br label %return

sw.bb8.i:                                         ; preds = %if.end.i
  %val_9.i = getelementptr inbounds i8, ptr %this, i64 40
  %14 = load double, ptr %val_9.i, align 8
  %val_10.i = getelementptr inbounds i8, ptr %2, i64 40
  %15 = load double, ptr %val_10.i, align 8
  %cmp11.i = fcmp oeq double %14, %15
  br label %return

sw.bb12.i:                                        ; preds = %if.end.i, %if.end.i, %if.end.i
  %val_13.i = getelementptr inbounds i8, ptr %this, i64 40
  %16 = load i64, ptr %val_13.i, align 8
  %val_14.i = getelementptr inbounds i8, ptr %2, i64 40
  %17 = load i64, ptr %val_14.i, align 8
  %cmp15.i = icmp eq i64 %16, %17
  br label %return

return:                                           ; preds = %sw.bb12.i, %sw.bb8.i, %sw.bb.i, %if.end.i, %land.rhs, %dynamic_cast.end, %land.lhs.true, %entry
  %retval.0 = phi i1 [ false, %entry ], [ false, %land.lhs.true ], [ false, %dynamic_cast.end ], [ %cmp15.i, %sw.bb12.i ], [ %cmp11.i, %sw.bb8.i ], [ %cmp7.i, %sw.bb.i ], [ false, %land.rhs ], [ true, %if.end.i ]
  ret i1 %retval.0
}